(dp0
S'info'
p1
I0
sS'function'
p2
I0
sS'error'
p3
I2
sS'statement'
p4
I21
sS'global_note'
p5
F5.238095238095238
sS'by_msg'
p6
(dp7
S'import-error'
p8
I1
sS'no-name-in-module'
p9
I1
ssS'refactor'
p10
I0
sS'method'
p11
I0
sS'cycles'
p12
(lp13
sS'warning'
p14
I0
sS'module'
p15
I1
sS'dependencies'
p16
(dp17
sS'convention'
p18
I0
sS'fatal'
p19
I0
sS'class'
p20
I0
sS'by_module'
p21
(dp22
S'util.gae_environment_detection'
p23
(dp24
g1
I0
sg18
I0
sg10
I0
sg14
I0
sg4
I0
sg3
I2
sg19
I0
sss.